target datalayout = "e-m:e-p270:32:32-p271:32:32-p272:64:64-i64:64-i128:128-f80:128-n8:16:32:64-S128"
target triple = "x86_64-unknown-linux-gnu"

%"class.node::BaseObject" = type { %"class.node::MemoryRetainer", %"class.v8::Global", ptr, ptr }
%"class.node::MemoryRetainer" = type { ptr }
%"class.v8::Global" = type { %"class.v8::PersistentBase" }
%"class.v8::PersistentBase" = type { %"class.v8::IndirectHandleBase" }
%"class.v8::IndirectHandleBase" = type { ptr }
%"struct.std::__detail::_Hash_node_base" = type { ptr }
%"struct.std::__detail::_Prime_rehash_policy" = type { float, i64 }
%struct.uv_buf_t = type { ptr, i64 }
%"class.v8::Global.76" = type { %"class.v8::PersistentBase.77" }
%"class.v8::PersistentBase.77" = type { %"class.v8::IndirectHandleBase" }
%"class.std::vector.190" = type { %"struct.std::_Vector_base.191" }
%"struct.std::_Vector_base.191" = type { %"struct.std::_Vector_base<std::__cxx11::basic_string<char>, std::allocator<std::__cxx11::basic_string<char>>>::_Vector_impl" }
%"struct.std::_Vector_base<std::__cxx11::basic_string<char>, std::allocator<std::__cxx11::basic_string<char>>>::_Vector_impl" = type { %"struct.std::_Vector_base<std::__cxx11::basic_string<char>, std::allocator<std::__cxx11::basic_string<char>>>::_Vector_impl_data" }
%"struct.std::_Vector_base<std::__cxx11::basic_string<char>, std::allocator<std::__cxx11::basic_string<char>>>::_Vector_impl_data" = type { ptr, ptr, ptr }
%"class.node::CleanupQueue" = type { %"class.node::MemoryRetainer", %"class.std::unordered_set.278", i64 }
%"class.std::unordered_set.278" = type { %"class.std::_Hashtable.279" }
%"class.std::_Hashtable.279" = type { ptr, i64, %"struct.std::__detail::_Hash_node_base", i64, %"struct.std::__detail::_Prime_rehash_policy", ptr }
%"class.node::BaseObjectPtrImpl.453" = type { %union.anon.454 }
%union.anon.454 = type { ptr }
%"class.node::Realm" = type { %"class.node::MemoryRetainer", %"class.std::set", %"class.std::set.442", %"class.std::set.442", %"class.std::vector.190", ptr, ptr, %"class.v8::Global.450", %"class.v8::Global.76", %"class.v8::Global.76", %"class.v8::Global.76", %"class.v8::Global", %"class.v8::Global.76", %"class.v8::Global.76", %"class.v8::Global.76", %"class.v8::Global", %"class.v8::Global.76", %"class.v8::Global.76", %"class.v8::Global.76", %"class.v8::Global.76", %"class.v8::Global.76", %"class.v8::Global.76", %"class.v8::Global.76", %"class.v8::Global.76", %"class.v8::Global.76", %"class.v8::Global.76", %"class.v8::Global.76", %"class.v8::Global.76", %"class.v8::Global.76", %"class.v8::Global.76", %"class.v8::Global.76", %"class.v8::Global.76", %"class.v8::Global.76", %"class.v8::Global.76", %"class.v8::Global.76", %"class.v8::Global.76", %"class.v8::Global.76", %"class.v8::Global.76", %"class.v8::Global.76", %"class.v8::Global.76", %"class.v8::Global.76", %"class.v8::Global.76", %"class.v8::Global.76", %"class.v8::Global.76", %"class.v8::Global", %"class.v8::Global.76", %"class.v8::Global.76", %"class.v8::Global.76", %"class.v8::Global", %"class.v8::Global", %"class.v8::Global", %"class.v8::Global", %"class.v8::Global", %"class.v8::Global", %"class.v8::Global.76", %"class.v8::Global.76", %"class.v8::Global.76", %"class.v8::Global.76", %"class.v8::Global.76", %"class.v8::Global.76", %"class.v8::Global.76", %"class.v8::Global.76", %"class.v8::Global.76", %"class.v8::Global.76", %"class.v8::Global.76", %"class.v8::Global.76", %"class.v8::Global.76", %"class.v8::Global.76", i32, i8, i64, i64, %"struct.std::array.452", %"class.node::CleanupQueue" }
%"class.std::set" = type { %"class.std::_Rb_tree" }
%"class.std::_Rb_tree" = type { %"struct.std::_Rb_tree<node::node_module *, node::node_module *, std::_Identity<node::node_module *>, std::less<node::node_module *>>::_Rb_tree_impl" }
%"struct.std::_Rb_tree<node::node_module *, node::node_module *, std::_Identity<node::node_module *>, std::less<node::node_module *>>::_Rb_tree_impl" = type { %"struct.std::_Rb_tree_key_compare", %"struct.std::_Rb_tree_header" }
%"struct.std::_Rb_tree_key_compare" = type { %"struct.std::less" }
%"struct.std::less" = type { i8 }
%"struct.std::_Rb_tree_header" = type { %"struct.std::_Rb_tree_node_base", i64 }
%"struct.std::_Rb_tree_node_base" = type { i32, ptr, ptr, ptr }
%"class.std::set.442" = type { %"class.std::_Rb_tree.443" }
%"class.std::_Rb_tree.443" = type { %"struct.std::_Rb_tree<std::__cxx11::basic_string<char>, std::__cxx11::basic_string<char>, std::_Identity<std::__cxx11::basic_string<char>>, std::less<std::__cxx11::basic_string<char>>>::_Rb_tree_impl" }
%"struct.std::_Rb_tree<std::__cxx11::basic_string<char>, std::__cxx11::basic_string<char>, std::_Identity<std::__cxx11::basic_string<char>>, std::less<std::__cxx11::basic_string<char>>>::_Rb_tree_impl" = type { %"struct.std::_Rb_tree_key_compare.447", %"struct.std::_Rb_tree_header" }
%"struct.std::_Rb_tree_key_compare.447" = type { %"struct.std::less.448" }
%"struct.std::less.448" = type { i8 }
%"class.v8::Global.450" = type { %"class.v8::PersistentBase.451" }
%"class.v8::PersistentBase.451" = type { %"class.v8::IndirectHandleBase" }
%"struct.std::array.452" = type { [12 x %"class.node::BaseObjectPtrImpl.453"] }

; Function Attrs: mustprogress nounwind uwtable
define linkonce_odr dso_local noundef ptr @_ZNK4node5Realm3envEv(ptr noundef nonnull align 8 dereferenceable(872) %this) #4 comdat align 2 {
entry:
  %this.addr = alloca ptr, align 8
  store ptr %this, ptr %this.addr, align 8
  %this1 = load ptr, ptr %this.addr, align 8
  %env_ = getelementptr inbounds %"class.node::Realm", ptr %this1, i32 0, i32 5
  %0 = load ptr, ptr %env_, align 8
  ret ptr %0
}

; Function Attrs: mustprogress nounwind uwtable
define linkonce_odr dso_local noundef ptr @_ZNK4node10BaseObject3envEv(ptr noundef nonnull align 8 dereferenceable(32) %this) #4 comdat align 2 {
entry:
  %this.addr = alloca ptr, align 8
  store ptr %this, ptr %this.addr, align 8
  %this1 = load ptr, ptr %this.addr, align 8
  %realm_ = getelementptr inbounds %"class.node::BaseObject", ptr %this1, i32 0, i32 2
  %0 = load ptr, ptr %realm_, align 8
  %call = call noundef ptr @_ZNK4node5Realm3envEv(ptr noundef nonnull align 8 dereferenceable(872) %0)
  ret ptr %call
}

; Function Attrs: mustprogress nounwind uwtable
define dso_local { ptr, i64 } @_ZN4node5http212Http2Session13OnStreamAllocEm(ptr noundef nonnull align 8 dereferenceable(640) %this, i64 noundef %suggested_size) unnamed_addr #4 align 2 {
entry:
  %retval = alloca %struct.uv_buf_t, align 8
  %this.addr = alloca ptr, align 8
  %suggested_size.addr = alloca i64, align 8
  store ptr %this, ptr %this.addr, align 8
  store i64 %suggested_size, ptr %suggested_size.addr, align 8
  %this1 = load ptr, ptr %this.addr, align 8
  %call = call noundef ptr @_ZNK4node10BaseObject3envEv(ptr noundef nonnull align 8 dereferenceable(32) %this1)
  %0 = load i64, ptr %suggested_size.addr, align 8
  %call2 = call { ptr, i64 } @_ZN4node11Environment23allocate_managed_bufferEm(ptr noundef nonnull align 8 dereferenceable(2872) %call, i64 noundef %0)
  %1 = getelementptr inbounds { ptr, i64 }, ptr %retval, i32 0, i32 0
  %2 = extractvalue { ptr, i64 } %call2, 0
  store ptr %2, ptr %1, align 8
  %3 = getelementptr inbounds { ptr, i64 }, ptr %retval, i32 0, i32 1
  %4 = extractvalue { ptr, i64 } %call2, 1
  store i64 %4, ptr %3, align 8
  %5 = load { ptr, i64 }, ptr %retval, align 8
  ret { ptr, i64 } %5
}