; Function Attrs: mustprogress nounwind uwtable
define dso_local { ptr, i64 } @_ZN4node5http212Http2Session13OnStreamAllocEm(ptr nocapture noundef nonnull readonly align 8 dereferenceable(640) %this, i64 noundef %suggested_size) unnamed_addr #4 align 2 {
entry:
  %realm_.i = getelementptr inbounds i8, ptr %this, i64 16
  %0 = load ptr, ptr %realm_.i, align 8
  %env_.i.i = getelementptr inbounds i8, ptr %0, i64 176
  %1 = load ptr, ptr %env_.i.i, align 8
  %call2 = tail call { ptr, i64 } @_ZN4node11Environment23allocate_managed_bufferEm(ptr noundef nonnull align 8 dereferenceable(2872) %1, i64 noundef %suggested_size) #29
  ret { ptr, i64 } %call2
}